; Function Attrs: nounwind uwtable
define internal void @tokenizeriter_dealloc(ptr noundef %0) #0 {
  %2 = getelementptr i8, ptr %0, i64 8
  %.val = load ptr, ptr %2, align 8, !tbaa !22
  %3 = getelementptr inbounds nuw i8, ptr %0, i64 32
  %4 = load ptr, ptr %3, align 8, !tbaa !41
  %.not.i6 = icmp eq ptr %4, null
  br i1 %.not.i6, label %Py_XDECREF.exit, label %5

5:                                                ; preds = %1
  %6 = load i32, ptr %4, align 8, !tbaa !11
  %.not.i.i = icmp sgt i32 %6, -1
  br i1 %.not.i.i, label %7, label %Py_XDECREF.exit

7:                                                ; preds = %5
  %8 = add nsw i32 %6, -1
  store i32 %8, ptr %4, align 8, !tbaa !11
  %9 = icmp eq i32 %8, 0
  br i1 %9, label %10, label %Py_XDECREF.exit

10:                                               ; preds = %7
  tail call void @_Py_Dealloc(ptr noundef nonnull %4) #6
  br label %Py_XDECREF.exit

Py_XDECREF.exit:                                  ; preds = %1, %5, %7, %10
  %11 = getelementptr inbounds nuw i8, ptr %0, i64 16
  %12 = load ptr, ptr %11, align 8, !tbaa !33
  tail call void @_PyTokenizer_Free(ptr noundef %12) #6
  %13 = getelementptr inbounds nuw i8, ptr %.val, i64 320
  %14 = load ptr, ptr %13, align 8, !tbaa !42
  tail call void %14(ptr noundef nonnull %0) #6
  %15 = load i32, ptr %.val, align 8, !tbaa !11
  %.not.i = icmp sgt i32 %15, -1
  br i1 %.not.i, label %16, label %Py_DECREF.exit

16:                                               ; preds = %Py_XDECREF.exit
  %17 = add nsw i32 %15, -1
  store i32 %17, ptr %.val, align 8, !tbaa !11
  %18 = icmp eq i32 %17, 0
  br i1 %18, label %19, label %Py_DECREF.exit

19:                                               ; preds = %16
  tail call void @_Py_Dealloc(ptr noundef nonnull %.val) #6
  br label %Py_DECREF.exit

Py_DECREF.exit:                                   ; preds = %Py_XDECREF.exit, %16, %19
  ret void
}